target datalayout = "e-m:e-p270:32:32-p271:32:32-p272:64:64-i64:64-i128:128-f80:128-n8:16:32:64-S128"
target triple = "x86_64-pc-linux-gnu"

%struct._cwd_state = type { ptr, i64 }
%struct._virtual_cwd_globals = type { %struct._cwd_state, i64, i64, i64, [1024 x ptr] }

@cwd_globals = hidden global %struct._virtual_cwd_globals zeroinitializer, align 8

; Function Attrs: nounwind uwtable
define dso_local i32 @virtual_chown(ptr noundef %0, i32 noundef %1, i32 noundef %2, i32 noundef %3) #0 {
  %5 = alloca i32, align 4
  %6 = alloca ptr, align 8
  %7 = alloca i32, align 4
  %8 = alloca i32, align 4
  %9 = alloca i32, align 4
  %10 = alloca %struct._cwd_state, align 8
  %11 = alloca i32, align 4
  %12 = alloca i32, align 4
  store ptr %0, ptr %6, align 8, !tbaa !12
  store i32 %1, ptr %7, align 4, !tbaa !27
  store i32 %2, ptr %8, align 4, !tbaa !27
  store i32 %3, ptr %9, align 4, !tbaa !27
  call void @llvm.lifetime.start.p0(i64 16, ptr %10) #16
  call void @llvm.lifetime.start.p0(i64 4, ptr %11) #16
  %13 = load i64, ptr getelementptr inbounds nuw (%struct._cwd_state, ptr @cwd_globals, i32 0, i32 1), align 8, !tbaa !16
  %14 = getelementptr inbounds nuw %struct._cwd_state, ptr %10, i32 0, i32 1
  store i64 %13, ptr %14, align 8, !tbaa !13
  %15 = load i64, ptr getelementptr inbounds nuw (%struct._cwd_state, ptr @cwd_globals, i32 0, i32 1), align 8, !tbaa !16
  %16 = add i64 %15, 1
  %17 = call i1 @llvm.is.constant.i64(i64 %16)
  br i1 %17, label %18, label %272

18:                                               ; preds = %4
  %19 = load i64, ptr getelementptr inbounds nuw (%struct._cwd_state, ptr @cwd_globals, i32 0, i32 1), align 8, !tbaa !16
  %20 = add i64 %19, 1
  %21 = icmp ule i64 %20, 8
  br i1 %21, label %22, label %24

22:                                               ; preds = %18
  %23 = call noalias ptr @_emalloc_8()
  br label %270

24:                                               ; preds = %18
  %25 = load i64, ptr getelementptr inbounds nuw (%struct._cwd_state, ptr @cwd_globals, i32 0, i32 1), align 8, !tbaa !16
  %26 = add i64 %25, 1
  %27 = icmp ule i64 %26, 16
  br i1 %27, label %28, label %30

28:                                               ; preds = %24
  %29 = call noalias ptr @_emalloc_16()
  br label %268

30:                                               ; preds = %24
  %31 = load i64, ptr getelementptr inbounds nuw (%struct._cwd_state, ptr @cwd_globals, i32 0, i32 1), align 8, !tbaa !16
  %32 = add i64 %31, 1
  %33 = icmp ule i64 %32, 24
  br i1 %33, label %34, label %36

34:                                               ; preds = %30
  %35 = call noalias ptr @_emalloc_24()
  br label %266

36:                                               ; preds = %30
  %37 = load i64, ptr getelementptr inbounds nuw (%struct._cwd_state, ptr @cwd_globals, i32 0, i32 1), align 8, !tbaa !16
  %38 = add i64 %37, 1
  %39 = icmp ule i64 %38, 32
  br i1 %39, label %40, label %42

40:                                               ; preds = %36
  %41 = call noalias ptr @_emalloc_32()
  br label %264

42:                                               ; preds = %36
  %43 = load i64, ptr getelementptr inbounds nuw (%struct._cwd_state, ptr @cwd_globals, i32 0, i32 1), align 8, !tbaa !16
  %44 = add i64 %43, 1
  %45 = icmp ule i64 %44, 40
  br i1 %45, label %46, label %48

46:                                               ; preds = %42
  %47 = call noalias ptr @_emalloc_40()
  br label %262

48:                                               ; preds = %42
  %49 = load i64, ptr getelementptr inbounds nuw (%struct._cwd_state, ptr @cwd_globals, i32 0, i32 1), align 8, !tbaa !16
  %50 = add i64 %49, 1
  %51 = icmp ule i64 %50, 48
  br i1 %51, label %52, label %54

52:                                               ; preds = %48
  %53 = call noalias ptr @_emalloc_48()
  br label %260

54:                                               ; preds = %48
  %55 = load i64, ptr getelementptr inbounds nuw (%struct._cwd_state, ptr @cwd_globals, i32 0, i32 1), align 8, !tbaa !16
  %56 = add i64 %55, 1
  %57 = icmp ule i64 %56, 56
  br i1 %57, label %58, label %60

58:                                               ; preds = %54
  %59 = call noalias ptr @_emalloc_56()
  br label %258

60:                                               ; preds = %54
  %61 = load i64, ptr getelementptr inbounds nuw (%struct._cwd_state, ptr @cwd_globals, i32 0, i32 1), align 8, !tbaa !16
  %62 = add i64 %61, 1
  %63 = icmp ule i64 %62, 64
  br i1 %63, label %64, label %66

64:                                               ; preds = %60
  %65 = call noalias ptr @_emalloc_64()
  br label %256

66:                                               ; preds = %60
  %67 = load i64, ptr getelementptr inbounds nuw (%struct._cwd_state, ptr @cwd_globals, i32 0, i32 1), align 8, !tbaa !16
  %68 = add i64 %67, 1
  %69 = icmp ule i64 %68, 80
  br i1 %69, label %70, label %72

70:                                               ; preds = %66
  %71 = call noalias ptr @_emalloc_80()
  br label %254

72:                                               ; preds = %66
  %73 = load i64, ptr getelementptr inbounds nuw (%struct._cwd_state, ptr @cwd_globals, i32 0, i32 1), align 8, !tbaa !16
  %74 = add i64 %73, 1
  %75 = icmp ule i64 %74, 96
  br i1 %75, label %76, label %78

76:                                               ; preds = %72
  %77 = call noalias ptr @_emalloc_96()
  br label %252

78:                                               ; preds = %72
  %79 = load i64, ptr getelementptr inbounds nuw (%struct._cwd_state, ptr @cwd_globals, i32 0, i32 1), align 8, !tbaa !16
  %80 = add i64 %79, 1
  %81 = icmp ule i64 %80, 112
  br i1 %81, label %82, label %84

82:                                               ; preds = %78
  %83 = call noalias ptr @_emalloc_112()
  br label %250

84:                                               ; preds = %78
  %85 = load i64, ptr getelementptr inbounds nuw (%struct._cwd_state, ptr @cwd_globals, i32 0, i32 1), align 8, !tbaa !16
  %86 = add i64 %85, 1
  %87 = icmp ule i64 %86, 128
  br i1 %87, label %88, label %90

88:                                               ; preds = %84
  %89 = call noalias ptr @_emalloc_128()
  br label %248

90:                                               ; preds = %84
  %91 = load i64, ptr getelementptr inbounds nuw (%struct._cwd_state, ptr @cwd_globals, i32 0, i32 1), align 8, !tbaa !16
  %92 = add i64 %91, 1
  %93 = icmp ule i64 %92, 160
  br i1 %93, label %94, label %96

94:                                               ; preds = %90
  %95 = call noalias ptr @_emalloc_160()
  br label %246

96:                                               ; preds = %90
  %97 = load i64, ptr getelementptr inbounds nuw (%struct._cwd_state, ptr @cwd_globals, i32 0, i32 1), align 8, !tbaa !16
  %98 = add i64 %97, 1
  %99 = icmp ule i64 %98, 192
  br i1 %99, label %100, label %102

100:                                              ; preds = %96
  %101 = call noalias ptr @_emalloc_192()
  br label %244

102:                                              ; preds = %96
  %103 = load i64, ptr getelementptr inbounds nuw (%struct._cwd_state, ptr @cwd_globals, i32 0, i32 1), align 8, !tbaa !16
  %104 = add i64 %103, 1
  %105 = icmp ule i64 %104, 224
  br i1 %105, label %106, label %108

106:                                              ; preds = %102
  %107 = call noalias ptr @_emalloc_224()
  br label %242

108:                                              ; preds = %102
  %109 = load i64, ptr getelementptr inbounds nuw (%struct._cwd_state, ptr @cwd_globals, i32 0, i32 1), align 8, !tbaa !16
  %110 = add i64 %109, 1
  %111 = icmp ule i64 %110, 256
  br i1 %111, label %112, label %114

112:                                              ; preds = %108
  %113 = call noalias ptr @_emalloc_256()
  br label %240

114:                                              ; preds = %108
  %115 = load i64, ptr getelementptr inbounds nuw (%struct._cwd_state, ptr @cwd_globals, i32 0, i32 1), align 8, !tbaa !16
  %116 = add i64 %115, 1
  %117 = icmp ule i64 %116, 320
  br i1 %117, label %118, label %120

118:                                              ; preds = %114
  %119 = call noalias ptr @_emalloc_320()
  br label %238

120:                                              ; preds = %114
  %121 = load i64, ptr getelementptr inbounds nuw (%struct._cwd_state, ptr @cwd_globals, i32 0, i32 1), align 8, !tbaa !16
  %122 = add i64 %121, 1
  %123 = icmp ule i64 %122, 384
  br i1 %123, label %124, label %126

124:                                              ; preds = %120
  %125 = call noalias ptr @_emalloc_384()
  br label %236

126:                                              ; preds = %120
  %127 = load i64, ptr getelementptr inbounds nuw (%struct._cwd_state, ptr @cwd_globals, i32 0, i32 1), align 8, !tbaa !16
  %128 = add i64 %127, 1
  %129 = icmp ule i64 %128, 448
  br i1 %129, label %130, label %132

130:                                              ; preds = %126
  %131 = call noalias ptr @_emalloc_448()
  br label %234

132:                                              ; preds = %126
  %133 = load i64, ptr getelementptr inbounds nuw (%struct._cwd_state, ptr @cwd_globals, i32 0, i32 1), align 8, !tbaa !16
  %134 = add i64 %133, 1
  %135 = icmp ule i64 %134, 512
  br i1 %135, label %136, label %138

136:                                              ; preds = %132
  %137 = call noalias ptr @_emalloc_512()
  br label %232

138:                                              ; preds = %132
  %139 = load i64, ptr getelementptr inbounds nuw (%struct._cwd_state, ptr @cwd_globals, i32 0, i32 1), align 8, !tbaa !16
  %140 = add i64 %139, 1
  %141 = icmp ule i64 %140, 640
  br i1 %141, label %142, label %144

142:                                              ; preds = %138
  %143 = call noalias ptr @_emalloc_640()
  br label %230

144:                                              ; preds = %138
  %145 = load i64, ptr getelementptr inbounds nuw (%struct._cwd_state, ptr @cwd_globals, i32 0, i32 1), align 8, !tbaa !16
  %146 = add i64 %145, 1
  %147 = icmp ule i64 %146, 768
  br i1 %147, label %148, label %150

148:                                              ; preds = %144
  %149 = call noalias ptr @_emalloc_768()
  br label %228

150:                                              ; preds = %144
  %151 = load i64, ptr getelementptr inbounds nuw (%struct._cwd_state, ptr @cwd_globals, i32 0, i32 1), align 8, !tbaa !16
  %152 = add i64 %151, 1
  %153 = icmp ule i64 %152, 896
  br i1 %153, label %154, label %156

154:                                              ; preds = %150
  %155 = call noalias ptr @_emalloc_896()
  br label %226

156:                                              ; preds = %150
  %157 = load i64, ptr getelementptr inbounds nuw (%struct._cwd_state, ptr @cwd_globals, i32 0, i32 1), align 8, !tbaa !16
  %158 = add i64 %157, 1
  %159 = icmp ule i64 %158, 1024
  br i1 %159, label %160, label %162

160:                                              ; preds = %156
  %161 = call noalias ptr @_emalloc_1024()
  br label %224

162:                                              ; preds = %156
  %163 = load i64, ptr getelementptr inbounds nuw (%struct._cwd_state, ptr @cwd_globals, i32 0, i32 1), align 8, !tbaa !16
  %164 = add i64 %163, 1
  %165 = icmp ule i64 %164, 1280
  br i1 %165, label %166, label %168

166:                                              ; preds = %162
  %167 = call noalias ptr @_emalloc_1280()
  br label %222

168:                                              ; preds = %162
  %169 = load i64, ptr getelementptr inbounds nuw (%struct._cwd_state, ptr @cwd_globals, i32 0, i32 1), align 8, !tbaa !16
  %170 = add i64 %169, 1
  %171 = icmp ule i64 %170, 1536
  br i1 %171, label %172, label %174

172:                                              ; preds = %168
  %173 = call noalias ptr @_emalloc_1536()
  br label %220

174:                                              ; preds = %168
  %175 = load i64, ptr getelementptr inbounds nuw (%struct._cwd_state, ptr @cwd_globals, i32 0, i32 1), align 8, !tbaa !16
  %176 = add i64 %175, 1
  %177 = icmp ule i64 %176, 1792
  br i1 %177, label %178, label %180

178:                                              ; preds = %174
  %179 = call noalias ptr @_emalloc_1792()
  br label %218

180:                                              ; preds = %174
  %181 = load i64, ptr getelementptr inbounds nuw (%struct._cwd_state, ptr @cwd_globals, i32 0, i32 1), align 8, !tbaa !16
  %182 = add i64 %181, 1
  %183 = icmp ule i64 %182, 2048
  br i1 %183, label %184, label %186

184:                                              ; preds = %180
  %185 = call noalias ptr @_emalloc_2048()
  br label %216

186:                                              ; preds = %180
  %187 = load i64, ptr getelementptr inbounds nuw (%struct._cwd_state, ptr @cwd_globals, i32 0, i32 1), align 8, !tbaa !16
  %188 = add i64 %187, 1
  %189 = icmp ule i64 %188, 2560
  br i1 %189, label %190, label %192

190:                                              ; preds = %186
  %191 = call noalias ptr @_emalloc_2560()
  br label %214

192:                                              ; preds = %186
  %193 = load i64, ptr getelementptr inbounds nuw (%struct._cwd_state, ptr @cwd_globals, i32 0, i32 1), align 8, !tbaa !16
  %194 = add i64 %193, 1
  %195 = icmp ule i64 %194, 3072
  br i1 %195, label %196, label %198

196:                                              ; preds = %192
  %197 = call noalias ptr @_emalloc_3072()
  br label %212

198:                                              ; preds = %192
  %199 = load i64, ptr getelementptr inbounds nuw (%struct._cwd_state, ptr @cwd_globals, i32 0, i32 1), align 8, !tbaa !16
  %200 = add i64 %199, 1
  %201 = icmp ule i64 %200, 2093056
  br i1 %201, label %202, label %206

202:                                              ; preds = %198
  %203 = load i64, ptr getelementptr inbounds nuw (%struct._cwd_state, ptr @cwd_globals, i32 0, i32 1), align 8, !tbaa !16
  %204 = add i64 %203, 1
  %205 = call noalias ptr @_emalloc_large(i64 noundef %204) #18
  br label %210

206:                                              ; preds = %198
  %207 = load i64, ptr getelementptr inbounds nuw (%struct._cwd_state, ptr @cwd_globals, i32 0, i32 1), align 8, !tbaa !16
  %208 = add i64 %207, 1
  %209 = call noalias ptr @_emalloc_huge(i64 noundef %208) #18
  br label %210

210:                                              ; preds = %206, %202
  %211 = phi ptr [ %205, %202 ], [ %209, %206 ]
  br label %212

212:                                              ; preds = %210, %196
  %213 = phi ptr [ %197, %196 ], [ %211, %210 ]
  br label %214

214:                                              ; preds = %212, %190
  %215 = phi ptr [ %191, %190 ], [ %213, %212 ]
  br label %216

216:                                              ; preds = %214, %184
  %217 = phi ptr [ %185, %184 ], [ %215, %214 ]
  br label %218

218:                                              ; preds = %216, %178
  %219 = phi ptr [ %179, %178 ], [ %217, %216 ]
  br label %220

220:                                              ; preds = %218, %172
  %221 = phi ptr [ %173, %172 ], [ %219, %218 ]
  br label %222

222:                                              ; preds = %220, %166
  %223 = phi ptr [ %167, %166 ], [ %221, %220 ]
  br label %224

224:                                              ; preds = %222, %160
  %225 = phi ptr [ %161, %160 ], [ %223, %222 ]
  br label %226

226:                                              ; preds = %224, %154
  %227 = phi ptr [ %155, %154 ], [ %225, %224 ]
  br label %228

228:                                              ; preds = %226, %148
  %229 = phi ptr [ %149, %148 ], [ %227, %226 ]
  br label %230

230:                                              ; preds = %228, %142
  %231 = phi ptr [ %143, %142 ], [ %229, %228 ]
  br label %232

232:                                              ; preds = %230, %136
  %233 = phi ptr [ %137, %136 ], [ %231, %230 ]
  br label %234

234:                                              ; preds = %232, %130
  %235 = phi ptr [ %131, %130 ], [ %233, %232 ]
  br label %236

236:                                              ; preds = %234, %124
  %237 = phi ptr [ %125, %124 ], [ %235, %234 ]
  br label %238

238:                                              ; preds = %236, %118
  %239 = phi ptr [ %119, %118 ], [ %237, %236 ]
  br label %240

240:                                              ; preds = %238, %112
  %241 = phi ptr [ %113, %112 ], [ %239, %238 ]
  br label %242

242:                                              ; preds = %240, %106
  %243 = phi ptr [ %107, %106 ], [ %241, %240 ]
  br label %244

244:                                              ; preds = %242, %100
  %245 = phi ptr [ %101, %100 ], [ %243, %242 ]
  br label %246

246:                                              ; preds = %244, %94
  %247 = phi ptr [ %95, %94 ], [ %245, %244 ]
  br label %248

248:                                              ; preds = %246, %88
  %249 = phi ptr [ %89, %88 ], [ %247, %246 ]
  br label %250

250:                                              ; preds = %248, %82
  %251 = phi ptr [ %83, %82 ], [ %249, %248 ]
  br label %252

252:                                              ; preds = %250, %76
  %253 = phi ptr [ %77, %76 ], [ %251, %250 ]
  br label %254

254:                                              ; preds = %252, %70
  %255 = phi ptr [ %71, %70 ], [ %253, %252 ]
  br label %256

256:                                              ; preds = %254, %64
  %257 = phi ptr [ %65, %64 ], [ %255, %254 ]
  br label %258

258:                                              ; preds = %256, %58
  %259 = phi ptr [ %59, %58 ], [ %257, %256 ]
  br label %260

260:                                              ; preds = %258, %52
  %261 = phi ptr [ %53, %52 ], [ %259, %258 ]
  br label %262

262:                                              ; preds = %260, %46
  %263 = phi ptr [ %47, %46 ], [ %261, %260 ]
  br label %264

264:                                              ; preds = %262, %40
  %265 = phi ptr [ %41, %40 ], [ %263, %262 ]
  br label %266

266:                                              ; preds = %264, %34
  %267 = phi ptr [ %35, %34 ], [ %265, %264 ]
  br label %268

268:                                              ; preds = %266, %28
  %269 = phi ptr [ %29, %28 ], [ %267, %266 ]
  br label %270

270:                                              ; preds = %268, %22
  %271 = phi ptr [ %23, %22 ], [ %269, %268 ]
  br label %276

272:                                              ; preds = %4
  %273 = load i64, ptr getelementptr inbounds nuw (%struct._cwd_state, ptr @cwd_globals, i32 0, i32 1), align 8, !tbaa !16
  %274 = add i64 %273, 1
  %275 = call noalias ptr @_emalloc(i64 noundef %274) #18
  br label %276

276:                                              ; preds = %272, %270
  %277 = phi ptr [ %271, %270 ], [ %275, %272 ]
  %278 = getelementptr inbounds nuw %struct._cwd_state, ptr %10, i32 0, i32 0
  store ptr %277, ptr %278, align 8, !tbaa !7
  %279 = getelementptr inbounds nuw %struct._cwd_state, ptr %10, i32 0, i32 0
  %280 = load ptr, ptr %279, align 8, !tbaa !7
  %281 = load ptr, ptr @cwd_globals, align 8, !tbaa !18
  %282 = load i64, ptr getelementptr inbounds nuw (%struct._cwd_state, ptr @cwd_globals, i32 0, i32 1), align 8, !tbaa !16
  %283 = add i64 %282, 1
  call void @llvm.memcpy.p0.p0.i64(ptr align 1 %280, ptr align 1 %281, i64 %283, i1 false)
  %284 = load ptr, ptr %6, align 8, !tbaa !12
  %285 = call i32 @virtual_file_ex(ptr noundef %10, ptr noundef %284, ptr noundef null, i32 noundef 2)
  %286 = icmp ne i32 %285, 0
  br i1 %286, label %287, label %291

287:                                              ; preds = %276
  %288 = getelementptr inbounds nuw %struct._cwd_state, ptr %10, i32 0, i32 0
  %289 = load ptr, ptr %288, align 8, !tbaa !7
  call void @_efree(ptr noundef %289)
  %290 = getelementptr inbounds nuw %struct._cwd_state, ptr %10, i32 0, i32 1
  store i64 0, ptr %290, align 8, !tbaa !13
  store i32 -1, ptr %5, align 4
  store i32 1, ptr %12, align 4
  br label %311

291:                                              ; preds = %276
  %292 = load i32, ptr %9, align 4, !tbaa !27
  %293 = icmp ne i32 %292, 0
  br i1 %293, label %294, label %300

294:                                              ; preds = %291
  %295 = getelementptr inbounds nuw %struct._cwd_state, ptr %10, i32 0, i32 0
  %296 = load ptr, ptr %295, align 8, !tbaa !7
  %297 = load i32, ptr %7, align 4, !tbaa !27
  %298 = load i32, ptr %8, align 4, !tbaa !27
  %299 = call i32 @lchown(ptr noundef %296, i32 noundef %297, i32 noundef %298) #16
  store i32 %299, ptr %11, align 4, !tbaa !27
  br label %306

300:                                              ; preds = %291
  %301 = getelementptr inbounds nuw %struct._cwd_state, ptr %10, i32 0, i32 0
  %302 = load ptr, ptr %301, align 8, !tbaa !7
  %303 = load i32, ptr %7, align 4, !tbaa !27
  %304 = load i32, ptr %8, align 4, !tbaa !27
  %305 = call i32 @chown(ptr noundef %302, i32 noundef %303, i32 noundef %304) #16
  store i32 %305, ptr %11, align 4, !tbaa !27
  br label %306

306:                                              ; preds = %300, %294
  %307 = getelementptr inbounds nuw %struct._cwd_state, ptr %10, i32 0, i32 0
  %308 = load ptr, ptr %307, align 8, !tbaa !7
  call void @_efree(ptr noundef %308)
  %309 = getelementptr inbounds nuw %struct._cwd_state, ptr %10, i32 0, i32 1
  store i64 0, ptr %309, align 8, !tbaa !13
  %310 = load i32, ptr %11, align 4, !tbaa !27
  store i32 %310, ptr %5, align 4
  store i32 1, ptr %12, align 4
  br label %311

311:                                              ; preds = %306, %287
  call void @llvm.lifetime.end.p0(i64 4, ptr %11) #16
  call void @llvm.lifetime.end.p0(i64 16, ptr %10) #16
  %312 = load i32, ptr %5, align 4
  ret i32 %312
}