; Function Attrs: nounwind uwtable
define dso_local noundef i32 @virtual_chown(ptr noundef readonly captures(none) %0, i32 noundef %1, i32 noundef %2, i32 noundef %3) local_unnamed_addr #0 {
  %5 = alloca %struct._cwd_state, align 8
  call void @llvm.lifetime.start.p0(i64 16, ptr nonnull %5) #22
  %6 = load i64, ptr getelementptr inbounds nuw (i8, ptr @cwd_globals, i64 8), align 8, !tbaa !13
  %7 = getelementptr inbounds nuw i8, ptr %5, i64 8
  store i64 %6, ptr %7, align 8, !tbaa !12
  %8 = add i64 %6, 1
  %9 = tail call noalias ptr @_emalloc(i64 noundef %8) #24
  store ptr %9, ptr %5, align 8, !tbaa !4
  %10 = load ptr, ptr @cwd_globals, align 8, !tbaa !15
  %11 = load i64, ptr getelementptr inbounds nuw (i8, ptr @cwd_globals, i64 8), align 8, !tbaa !13
  %12 = add i64 %11, 1
  tail call void @llvm.memcpy.p0.p0.i64(ptr align 1 %9, ptr align 1 %10, i64 %12, i1 false)
  %13 = call i32 @virtual_file_ex(ptr noundef nonnull %5, ptr noundef %0, ptr noundef null, i32 noundef 2)
  %.not = icmp eq i32 %13, 0
  br i1 %.not, label %14, label %20

14:                                               ; preds = %4
  %.not9 = icmp eq i32 %3, 0
  %15 = load ptr, ptr %5, align 8, !tbaa !4
  br i1 %.not9, label %18, label %16

16:                                               ; preds = %14
  %17 = call i32 @lchown(ptr noundef %15, i32 noundef %1, i32 noundef %2) #22
  br label %20

18:                                               ; preds = %14
  %19 = call i32 @chown(ptr noundef %15, i32 noundef %1, i32 noundef %2) #22
  br label %20

20:                                               ; preds = %16, %18, %4
  %.07 = phi i32 [ -1, %4 ], [ %17, %16 ], [ %19, %18 ]
  %21 = load ptr, ptr %5, align 8, !tbaa !4
  call void @_efree(ptr noundef %21) #22
  call void @llvm.lifetime.end.p0(i64 16, ptr nonnull %5) #22
  ret i32 %.07
}